#include <math.h>
#include <stdio.h>
#include <stdlib.h>
#include <string.h>

int main()
{
	int a,b,c,d,e,f,g;
	scanf("%d",&a);
	b=a/1000;
	c=a%1000;
	d=c/100;
	e=a%100;
	f=e/10;
	g=a%10;
	
	if(b==0)
	{
		if(d==0)
		{
			if(f==0)
			{
				printf("%d",g);
			}
			else
			{
				printf("%d%d",g,f);
			}
		}
		else
		{
			printf("%d%d%d",g,f,d);
		}
	}
	else
	{
		printf("%d%d%d%d",g,f,d,b);
	}
	return 0;
}
