; ModuleID = '16/261.c'
source_filename = "16/261.c"
target datalayout = "e-m:e-p270:32:32-p271:32:32-p272:64:64-i64:64-f80:128-n8:16:32:64-S128"
target triple = "x86_64-pc-linux-gnu"

@.str = private unnamed_addr constant [3 x i8] c"%d\00", align 1
@.str.1 = private unnamed_addr constant [5 x i8] c"%d%d\00", align 1
@.str.2 = private unnamed_addr constant [7 x i8] c"%d%d%d\00", align 1
@.str.3 = private unnamed_addr constant [9 x i8] c"%d%d%d%d\00", align 1

; Function Attrs: noinline nounwind uwtable
define dso_local i32 @main() #0 {
  %1 = alloca i32, align 4
  %2 = alloca i32, align 4
  %3 = alloca i32, align 4
  %4 = alloca i32, align 4
  %5 = alloca i32, align 4
  %6 = alloca i32, align 4
  %7 = alloca i32, align 4
  %8 = alloca i32, align 4
  store i32 0, i32* %1, align 4
  %9 = call i32 (i8*, ...) @__isoc99_scanf(i8* getelementptr inbounds ([3 x i8], [3 x i8]* @.str, i64 0, i64 0), i32* %2)
  %10 = load i32, i32* %2, align 4
  %11 = sdiv i32 %10, 1000
  store i32 %11, i32* %3, align 4
  %12 = load i32, i32* %2, align 4
  %13 = srem i32 %12, 1000
  store i32 %13, i32* %4, align 4
  %14 = load i32, i32* %4, align 4
  %15 = sdiv i32 %14, 100
  store i32 %15, i32* %5, align 4
  %16 = load i32, i32* %2, align 4
  %17 = srem i32 %16, 100
  store i32 %17, i32* %6, align 4
  %18 = load i32, i32* %6, align 4
  %19 = sdiv i32 %18, 10
  store i32 %19, i32* %7, align 4
  %20 = load i32, i32* %2, align 4
  %21 = srem i32 %20, 10
  store i32 %21, i32* %8, align 4
  %22 = load i32, i32* %3, align 4
  %23 = icmp eq i32 %22, 0
  br i1 %23, label %24, label %44

24:                                               ; preds = %0
  %25 = load i32, i32* %5, align 4
  %26 = icmp eq i32 %25, 0
  br i1 %26, label %27, label %38

27:                                               ; preds = %24
  %28 = load i32, i32* %7, align 4
  %29 = icmp eq i32 %28, 0
  br i1 %29, label %30, label %33

30:                                               ; preds = %27
  %31 = load i32, i32* %8, align 4
  %32 = call i32 (i8*, ...) @printf(i8* getelementptr inbounds ([3 x i8], [3 x i8]* @.str, i64 0, i64 0), i32 %31)
  br label %37

33:                                               ; preds = %27
  %34 = load i32, i32* %8, align 4
  %35 = load i32, i32* %7, align 4
  %36 = call i32 (i8*, ...) @printf(i8* getelementptr inbounds ([5 x i8], [5 x i8]* @.str.1, i64 0, i64 0), i32 %34, i32 %35)
  br label %37

37:                                               ; preds = %33, %30
  br label %43

38:                                               ; preds = %24
  %39 = load i32, i32* %8, align 4
  %40 = load i32, i32* %7, align 4
  %41 = load i32, i32* %5, align 4
  %42 = call i32 (i8*, ...) @printf(i8* getelementptr inbounds ([7 x i8], [7 x i8]* @.str.2, i64 0, i64 0), i32 %39, i32 %40, i32 %41)
  br label %43

43:                                               ; preds = %38, %37
  br label %50

44:                                               ; preds = %0
  %45 = load i32, i32* %8, align 4
  %46 = load i32, i32* %7, align 4
  %47 = load i32, i32* %5, align 4
  %48 = load i32, i32* %3, align 4
  %49 = call i32 (i8*, ...) @printf(i8* getelementptr inbounds ([9 x i8], [9 x i8]* @.str.3, i64 0, i64 0), i32 %45, i32 %46, i32 %47, i32 %48)
  br label %50

50:                                               ; preds = %44, %43
  ret i32 0
}

declare dso_local i32 @__isoc99_scanf(i8*, ...) #1

declare dso_local i32 @printf(i8*, ...) #1


!llvm.module.flags = !{!0}
!llvm.ident = !{!1}

!0 = !{i32 1, !"wchar_size", i32 4}
!1 = !{!"clang version 10.0.0-4ubuntu1 "}
